target datalayout = "e-m:e-p270:32:32-p271:32:32-p272:64:64-i64:64-i128:128-f80:128-n8:16:32:64-S128"
target triple = "x86_64-pc-linux-gnu"

; Function Attrs: nounwind uwtable
define internal i32 @sha224_internal_init(ptr noundef %0, ptr noundef %1) #0 {
  %3 = alloca ptr, align 8
  %4 = alloca ptr, align 8
  store ptr %0, ptr %3, align 8, !tbaa !3
  store ptr %1, ptr %4, align 8, !tbaa !19
  %5 = call i32 @ossl_prov_is_running()
  %6 = icmp ne i32 %5, 0
  br i1 %6, label %7, label %11

7:                                                ; preds = %2
  %8 = load ptr, ptr %3, align 8, !tbaa !3
  %9 = call i32 @SHA224_Init(ptr noundef %8)
  %10 = icmp ne i32 %9, 0
  br label %11

11:                                               ; preds = %7, %2
  %12 = phi i1 [ false, %2 ], [ %10, %7 ]
  %13 = zext i1 %12 to i32
  ret i32 %13
}